target datalayout = "e-m:e-p270:32:32-p271:32:32-p272:64:64-i64:64-i128:128-f80:128-n8:16:32:64-S128"
target triple = "x86_64-unknown-linux-gnu"

%"class.facebook::velox::FlatVector" = type { %"class.facebook::velox::SimpleVector", %"class.boost::intrusive_ptr", ptr, %"class.std::vector", %"class.folly::F14FastSet" }
%"class.facebook::velox::SimpleVector" = type { %"class.facebook::velox::BaseVector.base", %"class.std::optional.0", i8, i32, %"struct.facebook::velox::SimpleVectorStats" }
%"class.facebook::velox::BaseVector.base" = type <{ ptr, %"class.std::shared_ptr", i8, [3 x i8], i32, %"class.boost::intrusive_ptr", ptr, ptr, i32, %"class.std::optional", %"class.std::optional", %"class.std::optional", %"class.std::optional", i32, i8, i8, i8 }>
%"class.std::shared_ptr" = type { %"class.std::__shared_ptr" }
%"class.std::__shared_ptr" = type { ptr, %"class.std::__shared_count" }
%"class.std::__shared_count" = type { ptr }
%"class.std::optional" = type { %"struct.std::_Optional_base" }
%"struct.std::_Optional_base" = type { %"struct.std::_Optional_payload" }
%"struct.std::_Optional_payload" = type { %"struct.std::_Optional_payload_base.base", [3 x i8] }
%"struct.std::_Optional_payload_base.base" = type <{ %"union.std::_Optional_payload_base<int>::_Storage", i8 }>
%"union.std::_Optional_payload_base<int>::_Storage" = type { i32 }
%"class.std::optional.0" = type { %"struct.std::_Optional_base.1" }
%"struct.std::_Optional_base.1" = type { %"struct.std::_Optional_payload.3" }
%"struct.std::_Optional_payload.3" = type { %"struct.std::_Optional_payload_base.4" }
%"struct.std::_Optional_payload_base.4" = type { %"union.std::_Optional_payload_base<bool>::_Storage", i8 }
%"union.std::_Optional_payload_base<bool>::_Storage" = type { %"struct.std::_Optional_payload_base<bool>::_Empty_byte" }
%"struct.std::_Optional_payload_base<bool>::_Empty_byte" = type { i8 }
%"struct.facebook::velox::SimpleVectorStats" = type { %"class.std::optional.0", %"class.std::optional.0" }
%"class.boost::intrusive_ptr" = type { ptr }
%"class.std::vector" = type { %"struct.std::_Vector_base" }
%"struct.std::_Vector_base" = type { %"struct.std::_Vector_base<boost::intrusive_ptr<facebook::velox::Buffer>, std::allocator<boost::intrusive_ptr<facebook::velox::Buffer>>>::_Vector_impl" }
%"struct.std::_Vector_base<boost::intrusive_ptr<facebook::velox::Buffer>, std::allocator<boost::intrusive_ptr<facebook::velox::Buffer>>>::_Vector_impl" = type { %"struct.std::_Vector_base<boost::intrusive_ptr<facebook::velox::Buffer>, std::allocator<boost::intrusive_ptr<facebook::velox::Buffer>>>::_Vector_impl_data" }
%"struct.std::_Vector_base<boost::intrusive_ptr<facebook::velox::Buffer>, std::allocator<boost::intrusive_ptr<facebook::velox::Buffer>>>::_Vector_impl_data" = type { ptr, ptr, ptr }
%"class.folly::F14FastSet" = type { %"class.folly::F14ValueSet" }
%"class.folly::F14ValueSet" = type { %"class.folly::f14::detail::F14BasicSet" }
%"class.folly::f14::detail::F14BasicSet" = type { %"class.folly::f14::detail::F14Table" }
%"class.folly::f14::detail::F14Table" = type { ptr, i64, %"struct.folly::f14::detail::SizeAndPackedBegin" }
%"struct.folly::f14::detail::SizeAndPackedBegin" = type { i64, %"class.folly::f14::detail::PackedChunkItemPtr" }
%"class.folly::f14::detail::PackedChunkItemPtr" = type { i64 }

; Function Attrs: mustprogress nounwind uwtable
define linkonce_odr noundef zeroext i1 @_ZN8facebook5velox4bits8isBitSetImEEbPKT_i(ptr noundef %bits, i32 noundef %idx) #0 comdat {
entry:
  %bits.addr = alloca ptr, align 8
  %idx.addr = alloca i32, align 4
  store ptr %bits, ptr %bits.addr, align 8
  store i32 %idx, ptr %idx.addr, align 4
  %0 = load ptr, ptr %bits.addr, align 8
  %1 = load i32, ptr %idx.addr, align 4
  %conv = sext i32 %1 to i64
  %div = udiv i64 %conv, 64
  %arrayidx = getelementptr inbounds i64, ptr %0, i64 %div
  %2 = load i64, ptr %arrayidx, align 8
  %3 = load i32, ptr %idx.addr, align 4
  %conv1 = sext i32 %3 to i64
  %and = and i64 %conv1, 63
  %shl = shl i64 1, %and
  %and2 = and i64 %2, %shl
  %tobool = icmp ne i64 %and2, 0
  ret i1 %tobool
}

; Function Attrs: mustprogress uwtable
define noundef zeroext i1 @_ZNK8facebook5velox10FlatVectorIbE11valueAtFastEi(ptr noundef nonnull align 8 dereferenceable(184) %this, i32 noundef %idx) #1 align 2 {
entry:
  %this.addr = alloca ptr, align 8
  %idx.addr = alloca i32, align 4
  store ptr %this, ptr %this.addr, align 8
  store i32 %idx, ptr %idx.addr, align 4
  %this1 = load ptr, ptr %this.addr, align 8
  %rawValues_ = getelementptr inbounds %"class.facebook::velox::FlatVector", ptr %this1, i32 0, i32 2
  %0 = load ptr, ptr %rawValues_, align 8
  %1 = load i32, ptr %idx.addr, align 4
  %call = call noundef zeroext i1 @_ZN8facebook5velox4bits8isBitSetImEEbPKT_i(ptr noundef %0, i32 noundef %1)
  ret i1 %call
}