; Function Attrs: mustprogress nofree norecurse nosync nounwind willreturn memory(read, inaccessiblemem: none) uwtable
define noundef zeroext i1 @_ZNK8facebook5velox10FlatVectorIbE11valueAtFastEi(ptr nocapture noundef nonnull readonly align 8 dereferenceable(184) %this, i32 noundef %idx) local_unnamed_addr #1 align 2 {
entry:
  %rawValues_ = getelementptr inbounds i8, ptr %this, i64 120
  %0 = load ptr, ptr %rawValues_, align 8
  %conv.i = sext i32 %idx to i64
  %div2.i = lshr i64 %conv.i, 6
  %arrayidx.i = getelementptr inbounds i64, ptr %0, i64 %div2.i
  %1 = load i64, ptr %arrayidx.i, align 8
  %and.i = and i64 %conv.i, 63
  %shl.i = shl nuw i64 1, %and.i
  %and2.i = and i64 %1, %shl.i
  %tobool.i = icmp ne i64 %and2.i, 0
  ret i1 %tobool.i
}